; Function Attrs: nounwind uwtable
define range(i32 0, 2) i32 @SSL_set_session(ptr noundef %0, ptr noundef %1) local_unnamed_addr #3 {
  %3 = icmp eq ptr %0, null
  br i1 %3, label %.thread, label %4

4:                                                ; preds = %2
  %5 = load i32, ptr %0, align 8, !tbaa !7
  %6 = icmp eq i32 %5, 0
  br i1 %6, label %.thread26, label %7

7:                                                ; preds = %4
  %8 = and i32 %5, 128
  %.not = icmp eq i32 %8, 0
  br i1 %.not, label %.thread, label %9

9:                                                ; preds = %7
  %10 = tail call ptr @ossl_quic_obj_get0_handshake_layer(ptr noundef nonnull %0) #11
  %11 = icmp eq ptr %10, null
  br i1 %11, label %.thread, label %.thread26

.thread26:                                        ; preds = %4, %9
  %12 = phi ptr [ %10, %9 ], [ %0, %4 ]
  %13 = getelementptr inbounds nuw i8, ptr %12, i64 2304
  %14 = load ptr, ptr %13, align 8, !tbaa !17
  %.not.i = icmp eq ptr %14, null
  br i1 %.not.i, label %ssl_clear_bad_session.exit, label %15

15:                                               ; preds = %.thread26
  %16 = getelementptr inbounds nuw i8, ptr %12, i64 132
  %17 = load i32, ptr %16, align 4, !tbaa !153
  %18 = and i32 %17, 1
  %.not6.i = icmp eq i32 %18, 0
  br i1 %.not6.i, label %19, label %ssl_clear_bad_session.exit

19:                                               ; preds = %15
  %20 = tail call i32 @SSL_in_init(ptr noundef nonnull %12) #11
  %.not7.i = icmp eq i32 %20, 0
  br i1 %.not7.i, label %21, label %ssl_clear_bad_session.exit

21:                                               ; preds = %19
  %22 = tail call i32 @SSL_in_before(ptr noundef nonnull %12) #11
  %.not8.i = icmp eq i32 %22, 0
  br i1 %.not8.i, label %23, label %ssl_clear_bad_session.exit

23:                                               ; preds = %21
  %24 = getelementptr inbounds nuw i8, ptr %12, i64 2952
  %25 = load ptr, ptr %24, align 8, !tbaa !98
  %26 = load ptr, ptr %13, align 8, !tbaa !17
  %27 = tail call fastcc range(i32 0, 2) i32 @remove_session_lock(ptr noundef %25, ptr noundef %26, i32 noundef 1)
  br label %ssl_clear_bad_session.exit

ssl_clear_bad_session.exit:                       ; preds = %.thread26, %15, %19, %21, %23
  %28 = getelementptr inbounds nuw i8, ptr %0, i64 16
  %29 = load ptr, ptr %28, align 8, !tbaa !154
  %30 = getelementptr inbounds nuw i8, ptr %0, i64 24
  %31 = load ptr, ptr %30, align 8, !tbaa !155
  %.not23 = icmp eq ptr %29, %31
  br i1 %.not23, label %34, label %32

32:                                               ; preds = %ssl_clear_bad_session.exit
  %33 = tail call i32 @SSL_set_ssl_method(ptr noundef nonnull %0, ptr noundef %29) #11
  %.not24 = icmp eq i32 %33, 0
  br i1 %.not24, label %.thread, label %34

34:                                               ; preds = %32, %ssl_clear_bad_session.exit
  %.not25 = icmp eq ptr %1, null
  br i1 %.not25, label %41, label %35

35:                                               ; preds = %34
  %36 = getelementptr inbounds nuw i8, ptr %1, i64 920
  %37 = atomicrmw add ptr %36, i32 1 monotonic, align 4
  %38 = getelementptr inbounds nuw i8, ptr %1, i64 720
  %39 = load i64, ptr %38, align 8, !tbaa !75
  %40 = getelementptr inbounds nuw i8, ptr %12, i64 2456
  store i64 %39, ptr %40, align 8, !tbaa !151
  br label %41

41:                                               ; preds = %35, %34
  %42 = load ptr, ptr %13, align 8, !tbaa !17
  tail call void @SSL_SESSION_free(ptr noundef %42)
  store ptr %1, ptr %13, align 8, !tbaa !17
  br label %.thread

.thread:                                          ; preds = %7, %2, %32, %9, %41
  %.0 = phi i32 [ 1, %41 ], [ 0, %9 ], [ 0, %32 ], [ 0, %2 ], [ 0, %7 ]
  ret i32 %.0
}